target datalayout = "e-m:e-p270:32:32-p271:32:32-p272:64:64-i64:64-i128:128-f80:128-n8:16:32:64-S128"
target triple = "x86_64-pc-linux-gnu"

%struct.blake2b_state = type <{ [8 x i64], [2 x i64], [2 x i64], [256 x i8], i64, i8 }>

@blake2b_IV = internal constant [8 x i64] [i64 7640891576956012808, i64 -4942790177534073029, i64 4354685564936845355, i64 -6534734903238641935, i64 5840696475078001361, i64 -7276294671716946913, i64 2270897969802886507, i64 6620516959819538809], align 16

; Function Attrs: alwaysinline nounwind
define internal ptr @memcpy.inline(ptr noalias nonnull %0, ptr noalias nonnull %1, i64 %2) #4 {
  %4 = alloca ptr, align 8
  %5 = alloca ptr, align 8
  %6 = alloca i64, align 8
  store ptr %0, ptr %4, align 8
  store ptr %1, ptr %5, align 8
  store i64 %2, ptr %6, align 8
  %7 = load ptr, ptr %4, align 8
  %8 = load ptr, ptr %5, align 8
  %9 = load i64, ptr %6, align 8
  %10 = load ptr, ptr %4, align 8
  %11 = call i64 @llvm.objectsize.i64.p0(ptr %10, i1 false, i1 true, i1 true)
  %12 = call ptr @__memcpy_chk(ptr noundef %7, ptr noundef %8, i64 noundef %9, i64 noundef %11) #8
  ret ptr %12
}

; Function Attrs: alwaysinline nounwind
define internal ptr @memset.inline(ptr nonnull %0, i32 %1, i64 %2) #4 {
  %4 = alloca ptr, align 8
  %5 = alloca i32, align 4
  %6 = alloca i64, align 8
  store ptr %0, ptr %4, align 8
  store i32 %1, ptr %5, align 4
  store i64 %2, ptr %6, align 8
  %7 = load ptr, ptr %4, align 8
  %8 = load i32, ptr %5, align 4
  %9 = load i64, ptr %6, align 8
  %10 = load ptr, ptr %4, align 8
  %11 = call i64 @llvm.objectsize.i64.p0(ptr %10, i1 false, i1 true, i1 true)
  %12 = call ptr @__memset_chk(ptr noundef %7, i32 noundef %8, i64 noundef %9, i64 noundef %11) #8
  ret ptr %12
}

; Function Attrs: inlinehint nounwind ssp uwtable
define internal i64 @load64_le(ptr noundef %0) #2 {
  %2 = alloca ptr, align 8
  %3 = alloca i64, align 8
  store ptr %0, ptr %2, align 8
  call void @llvm.lifetime.start.p0(i64 8, ptr %3) #8
  %4 = load ptr, ptr %2, align 8
  %5 = call ptr @memcpy.inline(ptr noundef %3, ptr noundef %4, i64 noundef 8) #8
  %6 = load i64, ptr %3, align 8
  call void @llvm.lifetime.end.p0(i64 8, ptr %3) #8
  ret i64 %6
}

; Function Attrs: inlinehint nounwind ssp uwtable
define internal i32 @blake2b_init0(ptr noundef %0) #2 {
  %2 = alloca ptr, align 8
  %3 = alloca i32, align 4
  store ptr %0, ptr %2, align 8
  call void @llvm.lifetime.start.p0(i64 4, ptr %3) #8
  store i32 0, ptr %3, align 4
  br label %4

4:                                                ; preds = %17, %1
  %5 = load i32, ptr %3, align 4
  %6 = icmp slt i32 %5, 8
  br i1 %6, label %7, label %20

7:                                                ; preds = %4
  %8 = load i32, ptr %3, align 4
  %9 = sext i32 %8 to i64
  %10 = getelementptr [8 x i64], ptr @blake2b_IV, i64 0, i64 %9
  %11 = load i64, ptr %10, align 8
  %12 = load ptr, ptr %2, align 8
  %13 = getelementptr inbounds nuw %struct.blake2b_state, ptr %12, i32 0, i32 0
  %14 = load i32, ptr %3, align 4
  %15 = sext i32 %14 to i64
  %16 = getelementptr [8 x i64], ptr %13, i64 0, i64 %15
  store i64 %11, ptr %16, align 1
  br label %17

17:                                               ; preds = %7
  %18 = load i32, ptr %3, align 4
  %19 = add i32 %18, 1
  store i32 %19, ptr %3, align 4
  br label %4, !llvm.loop !6

20:                                               ; preds = %4
  %21 = load ptr, ptr %2, align 8
  %22 = getelementptr inbounds nuw %struct.blake2b_state, ptr %21, i32 0, i32 1
  %23 = call ptr @memset.inline(ptr noundef %22, i32 noundef 0, i64 noundef 297) #8
  call void @llvm.lifetime.end.p0(i64 4, ptr %3) #8
  ret i32 0
}

; Function Attrs: nounwind ssp uwtable
define hidden i32 @_sodium_blake2b_init_param(ptr noundef %0, ptr noundef %1) #0 {
  %3 = alloca ptr, align 8
  %4 = alloca ptr, align 8
  %5 = alloca i64, align 8
  %6 = alloca ptr, align 8
  store ptr %0, ptr %3, align 8
  store ptr %1, ptr %4, align 8
  call void @llvm.lifetime.start.p0(i64 8, ptr %5) #8
  call void @llvm.lifetime.start.p0(i64 8, ptr %6) #8
  %7 = load ptr, ptr %3, align 8
  %8 = call i32 @blake2b_init0(ptr noundef %7)
  %9 = load ptr, ptr %4, align 8
  store ptr %9, ptr %6, align 8
  store i64 0, ptr %5, align 8
  br label %10

10:                                               ; preds = %25, %2
  %11 = load i64, ptr %5, align 8
  %12 = icmp ult i64 %11, 8
  br i1 %12, label %13, label %28

13:                                               ; preds = %10
  %14 = load ptr, ptr %6, align 8
  %15 = load i64, ptr %5, align 8
  %16 = mul i64 8, %15
  %17 = getelementptr i8, ptr %14, i64 %16
  %18 = call i64 @load64_le(ptr noundef %17)
  %19 = load ptr, ptr %3, align 8
  %20 = getelementptr inbounds nuw %struct.blake2b_state, ptr %19, i32 0, i32 0
  %21 = load i64, ptr %5, align 8
  %22 = getelementptr [8 x i64], ptr %20, i64 0, i64 %21
  %23 = load i64, ptr %22, align 1
  %24 = xor i64 %23, %18
  store i64 %24, ptr %22, align 1
  br label %25

25:                                               ; preds = %13
  %26 = load i64, ptr %5, align 8
  %27 = add i64 %26, 1
  store i64 %27, ptr %5, align 8
  br label %10, !llvm.loop !4

28:                                               ; preds = %10
  call void @llvm.lifetime.end.p0(i64 8, ptr %6) #8
  call void @llvm.lifetime.end.p0(i64 8, ptr %5) #8
  ret i32 0
}