; Function Attrs: nofree nounwind ssp memory(argmem: readwrite) uwtable
define hidden noundef i32 @_sodium_blake2b_init_param(ptr noundef initializes((0, 64)) %0, ptr noundef readonly captures(none) %1) local_unnamed_addr #0 {
  tail call void @llvm.memcpy.p0.p0.i64(ptr noundef nonnull align 1 dereferenceable(64) %0, ptr noundef nonnull align 16 dereferenceable(64) @blake2b_IV, i64 64, i1 false)
  %3 = getelementptr inbounds nuw i8, ptr %0, i64 64
  tail call void @llvm.memset.p0.i64(ptr noundef nonnull align 1 dereferenceable(297) %3, i8 noundef 0, i64 noundef 297, i1 noundef false) #8
  br label %4

4:                                                ; preds = %2, %4
  %.07 = phi i64 [ 0, %2 ], [ %11, %4 ]
  %5 = shl nuw nsw i64 %.07, 3
  %6 = getelementptr i8, ptr %1, i64 %5
  %7 = load i64, ptr %6, align 1
  %8 = getelementptr [8 x i64], ptr %0, i64 0, i64 %.07
  %9 = load i64, ptr %8, align 1
  %10 = xor i64 %9, %7
  store i64 %10, ptr %8, align 1
  %11 = add nuw nsw i64 %.07, 1
  %exitcond.not = icmp eq i64 %11, 8
  br i1 %exitcond.not, label %12, label %4, !llvm.loop !4

12:                                               ; preds = %4
  ret i32 0
}